; Function Attrs: mustprogress nounwind uwtable
define dso_local noundef zeroext i1 @_ZN4node6crypto4Hash10HashUpdateEPKcm(ptr nocapture noundef nonnull readonly align 8 dereferenceable(72) %this, ptr noundef %data, i64 noundef %len) local_unnamed_addr #3 align 2 {
entry:
  %mdctx_ = getelementptr inbounds i8, ptr %this, i64 32
  %0 = load ptr, ptr %mdctx_, align 8
  %cmp.i.not = icmp eq ptr %0, null
  br i1 %cmp.i.not, label %return, label %if.end

if.end:                                           ; preds = %entry
  %call4 = tail call i32 @EVP_DigestUpdate(ptr noundef nonnull %0, ptr noundef %data, i64 noundef %len) #21
  %cmp = icmp eq i32 %call4, 1
  br label %return

return:                                           ; preds = %entry, %if.end
  %retval.0 = phi i1 [ %cmp, %if.end ], [ false, %entry ]
  ret i1 %retval.0
}